target datalayout = "e-m:e-p270:32:32-p271:32:32-p272:64:64-i64:64-i128:128-f80:128-n8:16:32:64-S128"
target triple = "x86_64-pc-linux-gnu"

%struct.StringInfoData = type { ptr, i32, i32, i32 }
%struct.stat = type { i64, i64, i64, i32, i32, i32, i32, i64, i64, i64, i64, %struct.timespec, %struct.timespec, %struct.timespec, [3 x i64] }
%struct.timespec = type { i64, i64 }

@.str.51 = private unnamed_addr constant [29 x i8] c"could not stat file \22%s\22: %m\00", align 1
@.str.52 = private unnamed_addr constant [23 x i8] c"file \22%s\22 is too large\00", align 1
@.str.53 = private unnamed_addr constant [29 x i8] c"could not read file \22%s\22: %m\00", align 1
@.str.54 = private unnamed_addr constant [43 x i8] c"could not read file \22%s\22: read %zd of %lld\00", align 1

; Function Attrs: nounwind uwtable
define internal void @slurp_file(i32 noundef %0, ptr noundef %1, ptr noundef %2, i32 noundef %3) #0 {
  %5 = alloca i32, align 4
  %6 = alloca ptr, align 8
  %7 = alloca ptr, align 8
  %8 = alloca i32, align 4
  %9 = alloca %struct.stat, align 8
  %10 = alloca i64, align 8
  store i32 %0, ptr %5, align 4
  store ptr %1, ptr %6, align 8
  store ptr %2, ptr %7, align 8
  store i32 %3, ptr %8, align 4
  call void @llvm.lifetime.start.p0(i64 144, ptr %9) #9
  call void @llvm.lifetime.start.p0(i64 8, ptr %10) #9
  %11 = load i32, ptr %5, align 4
  %12 = call i32 @fstat(i32 noundef %11, ptr noundef %9) #9
  %13 = icmp ne i32 %12, 0
  br i1 %13, label %14, label %19

14:                                               ; preds = %4
  br label %15

15:                                               ; preds = %14
  %16 = load ptr, ptr %6, align 8
  call void (i32, i32, ptr, ...) @pg_log_generic(i32 noundef 4, i32 noundef 0, ptr noundef @.str.51, ptr noundef %16)
  call void @exit(i32 noundef 1) #10
  unreachable

17:                                               ; No predecessors!
  br label %18

18:                                               ; preds = %17
  br label %19

19:                                               ; preds = %18, %4
  %20 = getelementptr inbounds nuw %struct.stat, ptr %9, i32 0, i32 8
  %21 = load i64, ptr %20, align 8
  %22 = load i32, ptr %8, align 4
  %23 = sext i32 %22 to i64
  %24 = icmp sgt i64 %21, %23
  br i1 %24, label %25, label %30

25:                                               ; preds = %19
  br label %26

26:                                               ; preds = %25
  %27 = load ptr, ptr %6, align 8
  call void (i32, i32, ptr, ...) @pg_log_generic(i32 noundef 4, i32 noundef 0, ptr noundef @.str.52, ptr noundef %27)
  call void @exit(i32 noundef 1) #10
  unreachable

28:                                               ; No predecessors!
  br label %29

29:                                               ; preds = %28
  br label %30

30:                                               ; preds = %29, %19
  %31 = load ptr, ptr %7, align 8
  %32 = getelementptr inbounds nuw %struct.stat, ptr %9, i32 0, i32 8
  %33 = load i64, ptr %32, align 8
  %34 = trunc i64 %33 to i32
  call void @enlargeStringInfo(ptr noundef %31, i32 noundef %34)
  %35 = load i32, ptr %5, align 4
  %36 = load ptr, ptr %7, align 8
  %37 = getelementptr inbounds nuw %struct.StringInfoData, ptr %36, i32 0, i32 0
  %38 = load ptr, ptr %37, align 8
  %39 = load ptr, ptr %7, align 8
  %40 = getelementptr inbounds nuw %struct.StringInfoData, ptr %39, i32 0, i32 1
  %41 = load i32, ptr %40, align 8
  %42 = sext i32 %41 to i64
  %43 = getelementptr inbounds i8, ptr %38, i64 %42
  %44 = getelementptr inbounds nuw %struct.stat, ptr %9, i32 0, i32 8
  %45 = load i64, ptr %44, align 8
  %46 = call i64 @read(i32 noundef %35, ptr noundef %43, i64 noundef %45)
  store i64 %46, ptr %10, align 8
  %47 = load i64, ptr %10, align 8
  %48 = getelementptr inbounds nuw %struct.stat, ptr %9, i32 0, i32 8
  %49 = load i64, ptr %48, align 8
  %50 = icmp ne i64 %47, %49
  br i1 %50, label %51, label %68

51:                                               ; preds = %30
  %52 = load i64, ptr %10, align 8
  %53 = icmp slt i64 %52, 0
  br i1 %53, label %54, label %59

54:                                               ; preds = %51
  br label %55

55:                                               ; preds = %54
  %56 = load ptr, ptr %6, align 8
  call void (i32, i32, ptr, ...) @pg_log_generic(i32 noundef 4, i32 noundef 0, ptr noundef @.str.53, ptr noundef %56)
  call void @exit(i32 noundef 1) #10
  unreachable

57:                                               ; No predecessors!
  br label %58

58:                                               ; preds = %57
  br label %67

59:                                               ; preds = %51
  br label %60

60:                                               ; preds = %59
  %61 = load ptr, ptr %6, align 8
  %62 = load i64, ptr %10, align 8
  %63 = getelementptr inbounds nuw %struct.stat, ptr %9, i32 0, i32 8
  %64 = load i64, ptr %63, align 8
  call void (i32, i32, ptr, ...) @pg_log_generic(i32 noundef 4, i32 noundef 0, ptr noundef @.str.54, ptr noundef %61, i64 noundef %62, i64 noundef %64)
  call void @exit(i32 noundef 1) #10
  unreachable

65:                                               ; No predecessors!
  br label %66

66:                                               ; preds = %65
  br label %67

67:                                               ; preds = %66, %58
  br label %68

68:                                               ; preds = %67, %30
  %69 = load i64, ptr %10, align 8
  %70 = load ptr, ptr %7, align 8
  %71 = getelementptr inbounds nuw %struct.StringInfoData, ptr %70, i32 0, i32 1
  %72 = load i32, ptr %71, align 8
  %73 = sext i32 %72 to i64
  %74 = add i64 %73, %69
  %75 = trunc i64 %74 to i32
  store i32 %75, ptr %71, align 8
  %76 = load ptr, ptr %7, align 8
  %77 = getelementptr inbounds nuw %struct.StringInfoData, ptr %76, i32 0, i32 0
  %78 = load ptr, ptr %77, align 8
  %79 = load ptr, ptr %7, align 8
  %80 = getelementptr inbounds nuw %struct.StringInfoData, ptr %79, i32 0, i32 1
  %81 = load i32, ptr %80, align 8
  %82 = sext i32 %81 to i64
  %83 = getelementptr inbounds i8, ptr %78, i64 %82
  store i8 0, ptr %83, align 1
  call void @llvm.lifetime.end.p0(i64 8, ptr %10) #9
  call void @llvm.lifetime.end.p0(i64 144, ptr %9) #9
  ret void
}