; Function Attrs: nounwind uwtable
define internal fastcc void @slurp_file(i32 noundef range(i32 0, -2147483648) %0, ptr noundef nonnull %1, ptr noundef %2, i32 noundef range(i32 128, 11025) %3) unnamed_addr #3 {
  %5 = alloca %struct.stat, align 8
  call void @llvm.lifetime.start.p0(i64 144, ptr nonnull %5) #12
  %6 = call i32 @fstat(i32 noundef %0, ptr noundef nonnull %5) #12
  %.not = icmp eq i32 %6, 0
  br i1 %.not, label %8, label %7

7:                                                ; preds = %4
  tail call void (i32, i32, ptr, ...) @pg_log_generic(i32 noundef 4, i32 noundef 0, ptr noundef nonnull @.str.51, ptr noundef nonnull %1) #12
  tail call void @exit(i32 noundef 1) #13
  unreachable

8:                                                ; preds = %4
  %9 = getelementptr inbounds nuw i8, ptr %5, i64 48
  %10 = load i64, ptr %9, align 8
  %11 = zext nneg i32 %3 to i64
  %12 = icmp sgt i64 %10, %11
  br i1 %12, label %13, label %14

13:                                               ; preds = %8
  tail call void (i32, i32, ptr, ...) @pg_log_generic(i32 noundef 4, i32 noundef 0, ptr noundef nonnull @.str.52, ptr noundef nonnull %1) #12
  tail call void @exit(i32 noundef 1) #13
  unreachable

14:                                               ; preds = %8
  %15 = trunc i64 %10 to i32
  tail call void @enlargeStringInfo(ptr noundef %2, i32 noundef %15) #12
  %16 = load ptr, ptr %2, align 8
  %17 = getelementptr inbounds nuw i8, ptr %2, i64 8
  %18 = load i32, ptr %17, align 8
  %19 = sext i32 %18 to i64
  %20 = getelementptr inbounds i8, ptr %16, i64 %19
  %21 = tail call i64 @read(i32 noundef %0, ptr noundef %20, i64 noundef %10) #12
  %.not18 = icmp eq i64 %21, %10
  br i1 %.not18, label %26, label %22

22:                                               ; preds = %14
  %23 = icmp slt i64 %21, 0
  br i1 %23, label %24, label %25

24:                                               ; preds = %22
  tail call void (i32, i32, ptr, ...) @pg_log_generic(i32 noundef 4, i32 noundef 0, ptr noundef nonnull @.str.53, ptr noundef nonnull %1) #12
  tail call void @exit(i32 noundef 1) #13
  unreachable

25:                                               ; preds = %22
  tail call void (i32, i32, ptr, ...) @pg_log_generic(i32 noundef 4, i32 noundef 0, ptr noundef nonnull @.str.54, ptr noundef nonnull %1, i64 noundef %21, i64 noundef %10) #12
  tail call void @exit(i32 noundef 1) #13
  unreachable

26:                                               ; preds = %14
  %27 = load i32, ptr %17, align 8
  %28 = add i32 %27, %15
  store i32 %28, ptr %17, align 8
  %29 = load ptr, ptr %2, align 8
  %30 = sext i32 %28 to i64
  %31 = getelementptr inbounds i8, ptr %29, i64 %30
  store i8 0, ptr %31, align 1
  call void @llvm.lifetime.end.p0(i64 144, ptr nonnull %5) #12
  ret void
}